; Function Attrs: mustprogress uwtable
define void @_ZN2cv5aruco13ArucoDetector13setDictionaryERKNS0_10DictionaryE(ptr nocapture noundef nonnull readonly align 8 dereferenceable(24) %0, ptr noundef nonnull align 8 dereferenceable(104) %1) local_unnamed_addr #3 align 2 {
  %3 = getelementptr inbounds i8, ptr %0, i64 8
  %4 = load ptr, ptr %3, align 8
  %5 = tail call noundef nonnull align 8 dereferenceable(96) ptr @_ZN2cv3MataSERKS0_(ptr noundef nonnull align 8 dereferenceable(96) %4, ptr noundef nonnull align 8 dereferenceable(96) %1)
  %6 = getelementptr inbounds i8, ptr %4, i64 96
  %7 = getelementptr inbounds i8, ptr %1, i64 96
  %8 = load i64, ptr %7, align 8
  store i64 %8, ptr %6, align 8
  ret void
}